target datalayout = "e-m:e-p270:32:32-p271:32:32-p272:64:64-i64:64-i128:128-f80:128-n8:16:32:64-S128"
target triple = "x86_64-pc-linux-gnu"

%struct.PyMutex = type { i8 }
%struct._xid_lookup_state = type { %struct._PyXIData_registry_t }
%struct._PyXIData_registry_t = type { i32, i32, %struct.PyMutex, ptr }
%struct.llist_node = type { ptr, ptr }
%struct.PyWideStringList = type { i64, ptr }
%struct._pending_calls = type { ptr, %struct.PyMutex, i32, i32, i32, [300 x %struct._pending_call], i32, i32 }
%struct._pending_call = type { ptr, ptr, i32 }
%struct._stoptheworld_state = type { %struct.PyMutex, i8, i8, i8, %struct.PyEvent, i64, ptr }
%struct.PyEvent = type { i8 }
%struct._object = type { %union.anon, ptr }
%union.anon = type { i64 }
%struct.PyGC_Head = type { i64, i64 }
%struct._is = type { %struct._ceval_state, ptr, i64, i64, i32, i64, i32, i32, i32, i64, %struct.pythreads, ptr, ptr, i64, %struct._gc_runtime_state, ptr, ptr, %struct._import_state, %struct._gil_runtime_state, %struct.codecs_state, %struct.PyConfig, i64, ptr, ptr, ptr, ptr, [8 x ptr], i8, i64, [255 x ptr], %struct._PyXI_state_t, ptr, ptr, ptr, %struct._warnings_runtime_state, %struct.atexit_state, %struct._stoptheworld_state, %struct._qsbr_shared, ptr, ptr, [8 x ptr], [8 x ptr], [8 x ptr], i8, i8, %struct._py_object_state, %struct._Py_unicode_state, %struct._Py_long_state, %struct._dtoa_state, %struct._py_func_state, %struct._py_code_state, %struct._Py_dict_state, %struct._Py_exc_state, %struct._Py_mem_interp_free_queue, %struct.ast_state, %struct.types_state, %struct.callable_cache, i8, ptr, i64, %struct._rare_events, ptr, %struct._Py_GlobalMonitors, i8, i8, i64, i64, [8 x [19 x ptr]], [8 x ptr], [8 x i64], %struct._Py_interp_cached_objects, %struct._Py_interp_static_objects, i64, %struct._PyThreadStateImpl }
%struct._ceval_state = type { i64, i32, ptr, i32, %struct._pending_calls }
%struct.pythreads = type { i64, ptr, ptr, ptr, i64, i64 }
%struct._gc_runtime_state = type { ptr, i32, i32, i32, %struct.gc_generation, [2 x %struct.gc_generation], %struct.gc_generation, [3 x %struct.gc_generation_stats], i32, ptr, ptr, i64, i64, i32, i32 }
%struct.gc_generation = type { %struct.PyGC_Head, i32, i32 }
%struct.gc_generation_stats = type { i64, i64, i64 }
%struct._import_state = type { ptr, ptr, ptr, i32, i32, i32, ptr, %struct._PyRecursiveMutex, %struct.anon }
%struct._PyRecursiveMutex = type { %struct.PyMutex, i64, i64 }
%struct.anon = type { i32, i64, i32 }
%struct._gil_runtime_state = type { i64, ptr, i32, i64, %union.pthread_cond_t, %union.pthread_mutex_t, %union.pthread_cond_t, %union.pthread_mutex_t }
%union.pthread_cond_t = type { %struct.__pthread_cond_s }
%struct.__pthread_cond_s = type { %union.__atomic_wide_counter, %union.__atomic_wide_counter, [2 x i32], [2 x i32], i32, i32, [2 x i32] }
%union.__atomic_wide_counter = type { i64 }
%union.pthread_mutex_t = type { %struct.__pthread_mutex_s }
%struct.__pthread_mutex_s = type { i32, i32, i32, i32, i32, i16, i16, %struct.__pthread_internal_list }
%struct.__pthread_internal_list = type { ptr, ptr }
%struct.codecs_state = type { ptr, ptr, ptr, i32 }
%struct.PyConfig = type { i32, i32, i32, i32, i32, i32, i64, i32, i32, i32, i32, i32, i32, i32, ptr, i32, ptr, ptr, ptr, i32, %struct.PyWideStringList, %struct.PyWideStringList, %struct.PyWideStringList, %struct.PyWideStringList, i32, i32, i32, i32, i32, i32, i32, i32, i32, i32, i32, i32, i32, ptr, ptr, ptr, i32, i32, i32, i32, i32, ptr, ptr, ptr, ptr, i32, %struct.PyWideStringList, ptr, ptr, ptr, ptr, ptr, ptr, ptr, i32, ptr, ptr, ptr, ptr, i32, i32, i32 }
%struct._PyXI_state_t = type { %struct._xid_lookup_state, %struct.xi_exceptions }
%struct.xi_exceptions = type { ptr, ptr, ptr }
%struct._warnings_runtime_state = type { ptr, ptr, ptr, %struct._PyRecursiveMutex, i64 }
%struct.atexit_state = type { ptr, ptr }
%struct._qsbr_shared = type { i64, i64, ptr, i64, %struct.PyMutex, ptr }
%struct._py_object_state = type { %struct._Py_freelists, i32 }
%struct._Py_freelists = type { %struct._Py_freelist, %struct._Py_freelist, [20 x %struct._Py_freelist], %struct._Py_freelist, %struct._Py_freelist, %struct._Py_freelist, %struct._Py_freelist, %struct._Py_freelist, %struct._Py_freelist, %struct._Py_freelist, %struct._Py_freelist, %struct._Py_freelist, %struct._Py_freelist, %struct._Py_freelist, %struct._Py_freelist, %struct._Py_freelist }
%struct._Py_freelist = type { ptr, i64 }
%struct._Py_unicode_state = type { %struct._Py_unicode_fs_codec, ptr, %struct._Py_unicode_ids }
%struct._Py_unicode_fs_codec = type { ptr, i32, ptr, i32 }
%struct._Py_unicode_ids = type { i64, ptr }
%struct._Py_long_state = type { i32 }
%struct._dtoa_state = type { [8 x ptr], [8 x ptr], [288 x double], ptr }
%struct._py_func_state = type { i32, [4096 x %struct._func_version_cache_item] }
%struct._func_version_cache_item = type { ptr, ptr }
%struct._py_code_state = type { %struct.PyMutex, ptr }
%struct._Py_dict_state = type { i32, [8 x ptr] }
%struct._Py_exc_state = type { ptr, ptr, i32, ptr }
%struct._Py_mem_interp_free_queue = type { i32, %struct.PyMutex, %struct.llist_node }
%struct.ast_state = type { %struct._PyOnceFlag, i32, ptr, ptr, ptr, ptr, ptr, ptr, ptr, ptr, ptr, ptr, ptr, ptr, ptr, ptr, ptr, ptr, ptr, ptr, ptr, ptr, ptr, ptr, ptr, ptr, ptr, ptr, ptr, ptr, ptr, ptr, ptr, ptr, ptr, ptr, ptr, ptr, ptr, ptr, ptr, ptr, ptr, ptr, ptr, ptr, ptr, ptr, ptr, ptr, ptr, ptr, ptr, ptr, ptr, ptr, ptr, ptr, ptr, ptr, ptr, ptr, ptr, ptr, ptr, ptr, ptr, ptr, ptr, ptr, ptr, ptr, ptr, ptr, ptr, ptr, ptr, ptr, ptr, ptr, ptr, ptr, ptr, ptr, ptr, ptr, ptr, ptr, ptr, ptr, ptr, ptr, ptr, ptr, ptr, ptr, ptr, ptr, ptr, ptr, ptr, ptr, ptr, ptr, ptr, ptr, ptr, ptr, ptr, ptr, ptr, ptr, ptr, ptr, ptr, ptr, ptr, ptr, ptr, ptr, ptr, ptr, ptr, ptr, ptr, ptr, ptr, ptr, ptr, ptr, ptr, ptr, ptr, ptr, ptr, ptr, ptr, ptr, ptr, ptr, ptr, ptr, ptr, ptr, ptr, ptr, ptr, ptr, ptr, ptr, ptr, ptr, ptr, ptr, ptr, ptr, ptr, ptr, ptr, ptr, ptr, ptr, ptr, ptr, ptr, ptr, ptr, ptr, ptr, ptr, ptr, ptr, ptr, ptr, ptr, ptr, ptr, ptr, ptr, ptr, ptr, ptr, ptr, ptr, ptr, ptr, ptr, ptr, ptr, ptr, ptr, ptr, ptr, ptr, ptr, ptr, ptr, ptr, ptr, ptr, ptr, ptr, ptr, ptr, ptr, ptr, ptr, ptr, ptr, ptr, ptr, ptr, ptr, ptr, ptr, ptr, ptr, ptr, ptr, ptr, ptr, ptr, ptr, ptr, ptr, ptr, ptr, ptr, ptr, ptr, ptr, ptr, ptr, ptr, ptr, ptr, ptr, ptr, ptr, ptr, ptr, ptr, ptr, ptr, ptr }
%struct._PyOnceFlag = type { i8 }
%struct.types_state = type { i32, %struct.type_cache, %struct.anon.1, %struct.anon.2, %struct.PyMutex, [4096 x ptr] }
%struct.type_cache = type { [4096 x %struct.type_cache_entry] }
%struct.type_cache_entry = type { i32, ptr, ptr }
%struct.anon.1 = type { i64, [200 x %struct.managed_static_type_state] }
%struct.managed_static_type_state = type { ptr, i32, i32, i32, ptr, ptr, ptr }
%struct.anon.2 = type { i64, i64, [10 x %struct.managed_static_type_state] }
%struct.callable_cache = type { ptr, ptr, ptr, ptr }
%struct._rare_events = type { i8, i8, i8, i8, i8 }
%struct._Py_GlobalMonitors = type { [16 x i8] }
%struct._Py_interp_cached_objects = type { ptr, ptr, ptr, [10 x ptr], ptr, ptr, ptr, ptr, ptr, ptr, ptr }
%struct._Py_interp_static_objects = type { %struct.anon.3 }
%struct.anon.3 = type { i32, %struct.PyGC_Head, %struct.PyHamtObject, %struct.PyBaseExceptionObject }
%struct.PyHamtObject = type { %struct._object, ptr, ptr, i64 }
%struct.PyBaseExceptionObject = type { %struct._object, ptr, ptr, ptr, ptr, ptr, ptr, i8 }
%struct._PyThreadStateImpl = type { %struct._ts, ptr, ptr, ptr, %struct.llist_node }
%struct._ts = type { ptr, ptr, ptr, i64, %struct.anon.5, i32, i32, i32, i32, i32, i32, i32, i32, ptr, ptr, ptr, ptr, ptr, ptr, ptr, ptr, i32, ptr, i64, i64, ptr, i64, i32, ptr, ptr, ptr, i64, i64, ptr, ptr, ptr, %struct._err_stackitem, ptr, i64, ptr, ptr }
%struct.anon.5 = type { i32 }
%struct._err_stackitem = type { ptr, ptr }

@.str.10 = private unnamed_addr constant [32 x i8] c"PyMUTEX_LOCK(gil->mutex) failed\00", align 1
@.str.12 = private unnamed_addr constant [34 x i8] c"PyMUTEX_UNLOCK(gil->mutex) failed\00", align 1
@.str.13 = private unnamed_addr constant [39 x i8] c"PyMUTEX_LOCK(gil->switch_mutex) failed\00", align 1
@.str.15 = private unnamed_addr constant [41 x i8] c"PyMUTEX_UNLOCK(gil->switch_mutex) failed\00", align 1
@__func__.drop_gil = private unnamed_addr constant [9 x i8] c"drop_gil\00", align 1
@.str.16 = private unnamed_addr constant [28 x i8] c"drop_gil: GIL is not locked\00", align 1
@.str.17 = private unnamed_addr constant [37 x i8] c"PyCOND_WAIT(gil->switch_cond) failed\00", align 1
@__func__.drop_gil_impl = private unnamed_addr constant [14 x i8] c"drop_gil_impl\00", align 1
@.str.18 = private unnamed_addr constant [32 x i8] c"PyCOND_SIGNAL(gil->cond) failed\00", align 1

; Function Attrs: inlinehint nounwind uwtable
define internal i64 @_Py_atomic_and_uintptr(ptr noundef %0, i64 noundef %1) #2 {
  %3 = alloca ptr, align 8
  %4 = alloca i64, align 8
  %5 = alloca i64, align 8
  %6 = alloca i64, align 8
  store ptr %0, ptr %3, align 8, !tbaa !219
  store i64 %1, ptr %4, align 8, !tbaa !4
  %7 = load ptr, ptr %3, align 8, !tbaa !219
  %8 = load i64, ptr %4, align 8, !tbaa !4
  store i64 %8, ptr %5, align 8, !tbaa !4
  %9 = load i64, ptr %5, align 8
  %10 = atomicrmw and ptr %7, i64 %9 seq_cst, align 8
  store i64 %10, ptr %6, align 8
  %11 = load i64, ptr %6, align 8, !tbaa !4
  ret i64 %11
}

; Function Attrs: inlinehint nounwind uwtable
define internal i64 @_Py_atomic_load_uintptr_relaxed(ptr noundef %0) #2 {
  %2 = alloca ptr, align 8
  %3 = alloca i64, align 8
  store ptr %0, ptr %2, align 8, !tbaa !219
  %4 = load ptr, ptr %2, align 8, !tbaa !219
  %5 = load atomic i64, ptr %4 monotonic, align 8
  store i64 %5, ptr %3, align 8
  %6 = load i64, ptr %3, align 8, !tbaa !4
  ret i64 %6
}

; Function Attrs: inlinehint nounwind uwtable
define internal void @_Py_atomic_store_int_relaxed(ptr noundef %0, i32 noundef %1) #2 {
  %3 = alloca ptr, align 8
  %4 = alloca i32, align 4
  %5 = alloca i32, align 4
  store ptr %0, ptr %3, align 8, !tbaa !216
  store i32 %1, ptr %4, align 4, !tbaa !182
  %6 = load ptr, ptr %3, align 8, !tbaa !216
  %7 = load i32, ptr %4, align 4, !tbaa !182
  store i32 %7, ptr %5, align 4, !tbaa !182
  %8 = load i32, ptr %5, align 4
  store atomic i32 %8, ptr %6 monotonic, align 4
  ret void
}

; Function Attrs: inlinehint nounwind uwtable
define internal void @_Py_unset_eval_breaker_bit(ptr noundef %0, i64 noundef %1) #2 {
  %3 = alloca ptr, align 8
  %4 = alloca i64, align 8
  store ptr %0, ptr %3, align 8, !tbaa !95
  store i64 %1, ptr %4, align 8, !tbaa !4
  %5 = load ptr, ptr %3, align 8, !tbaa !95
  %6 = getelementptr inbounds nuw %struct._ts, ptr %5, i32 0, i32 3
  %7 = load i64, ptr %4, align 8, !tbaa !4
  %8 = xor i64 %7, -1
  %9 = call i64 @_Py_atomic_and_uintptr(ptr noundef %6, i64 noundef %8)
  ret void
}

; Function Attrs: inlinehint nounwind uwtable
define internal ptr @_Py_atomic_load_ptr_relaxed(ptr noundef %0) #2 {
  %2 = alloca ptr, align 8
  %3 = alloca ptr, align 8
  store ptr %0, ptr %2, align 8, !tbaa !198
  %4 = load ptr, ptr %2, align 8, !tbaa !198
  %5 = load atomic i64, ptr %4 monotonic, align 8
  store i64 %5, ptr %3, align 8
  %6 = load ptr, ptr %3, align 8, !tbaa !198
  ret ptr %6
}

; Function Attrs: inlinehint nounwind uwtable
define internal i32 @_Py_eval_breaker_bit_is_set(ptr noundef %0, i64 noundef %1) #2 {
  %3 = alloca ptr, align 8
  %4 = alloca i64, align 8
  %5 = alloca i64, align 8
  store ptr %0, ptr %3, align 8, !tbaa !95
  store i64 %1, ptr %4, align 8, !tbaa !4
  call void @llvm.lifetime.start.p0(i64 8, ptr %5) #11
  %6 = load ptr, ptr %3, align 8, !tbaa !95
  %7 = getelementptr inbounds nuw %struct._ts, ptr %6, i32 0, i32 3
  %8 = call i64 @_Py_atomic_load_uintptr_relaxed(ptr noundef %7)
  store i64 %8, ptr %5, align 8, !tbaa !4
  %9 = load i64, ptr %5, align 8, !tbaa !4
  %10 = load i64, ptr %4, align 8, !tbaa !4
  %11 = and i64 %9, %10
  %12 = icmp ne i64 %11, 0
  %13 = zext i1 %12 to i32
  call void @llvm.lifetime.end.p0(i64 8, ptr %5) #11
  ret i32 %13
}

; Function Attrs: inlinehint nounwind uwtable
define internal void @drop_gil_impl(ptr noundef %0, ptr noundef %1) #2 {
  %3 = alloca ptr, align 8
  %4 = alloca ptr, align 8
  store ptr %0, ptr %3, align 8, !tbaa !95
  store ptr %1, ptr %4, align 8, !tbaa !93
  %5 = load ptr, ptr %4, align 8, !tbaa !93
  %6 = getelementptr inbounds nuw %struct._gil_runtime_state, ptr %5, i32 0, i32 5
  %7 = call i32 @pthread_mutex_lock(ptr noundef %6) #11
  %8 = icmp ne i32 %7, 0
  br i1 %8, label %9, label %10

9:                                                ; preds = %2
  call void @_Py_FatalErrorFunc(ptr noundef @__func__.drop_gil_impl, ptr noundef @.str.10) #12
  unreachable

10:                                               ; preds = %2
  %11 = load ptr, ptr %4, align 8, !tbaa !93
  %12 = getelementptr inbounds nuw %struct._gil_runtime_state, ptr %11, i32 0, i32 2
  call void @_Py_atomic_store_int_relaxed(ptr noundef %12, i32 noundef 0)
  %13 = load ptr, ptr %3, align 8, !tbaa !95
  %14 = icmp ne ptr %13, null
  br i1 %14, label %15, label %21

15:                                               ; preds = %10
  %16 = load ptr, ptr %3, align 8, !tbaa !95
  %17 = getelementptr inbounds nuw %struct._ts, ptr %16, i32 0, i32 4
  %18 = load i32, ptr %17, align 8
  %19 = and i32 %18, -33
  %20 = or i32 %19, 0
  store i32 %20, ptr %17, align 8
  br label %21

21:                                               ; preds = %15, %10
  %22 = load ptr, ptr %4, align 8, !tbaa !93
  %23 = getelementptr inbounds nuw %struct._gil_runtime_state, ptr %22, i32 0, i32 4
  %24 = call i32 @pthread_cond_signal(ptr noundef %23) #11
  %25 = icmp ne i32 %24, 0
  br i1 %25, label %26, label %27

26:                                               ; preds = %21
  call void @_Py_FatalErrorFunc(ptr noundef @__func__.drop_gil_impl, ptr noundef @.str.18) #12
  unreachable

27:                                               ; preds = %21
  %28 = load ptr, ptr %4, align 8, !tbaa !93
  %29 = getelementptr inbounds nuw %struct._gil_runtime_state, ptr %28, i32 0, i32 5
  %30 = call i32 @pthread_mutex_unlock(ptr noundef %29) #11
  %31 = icmp ne i32 %30, 0
  br i1 %31, label %32, label %33

32:                                               ; preds = %27
  call void @_Py_FatalErrorFunc(ptr noundef @__func__.drop_gil_impl, ptr noundef @.str.12) #12
  unreachable

33:                                               ; preds = %27
  ret void
}

; Function Attrs: inlinehint nounwind uwtable
define internal void @_Py_atomic_store_ptr_relaxed(ptr noundef %0, ptr noundef %1) #2 {
  %3 = alloca ptr, align 8
  %4 = alloca ptr, align 8
  %5 = alloca ptr, align 8
  store ptr %0, ptr %3, align 8, !tbaa !198
  store ptr %1, ptr %4, align 8, !tbaa !198
  %6 = load ptr, ptr %3, align 8, !tbaa !198
  %7 = load ptr, ptr %4, align 8, !tbaa !198
  store ptr %7, ptr %5, align 8, !tbaa !198
  %8 = load i64, ptr %5, align 8
  store atomic i64 %8, ptr %6 monotonic, align 8
  ret void
}

; Function Attrs: inlinehint nounwind uwtable
define internal i32 @_Py_atomic_load_int_relaxed(ptr noundef %0) #2 {
  %2 = alloca ptr, align 8
  %3 = alloca i32, align 4
  store ptr %0, ptr %2, align 8, !tbaa !216
  %4 = load ptr, ptr %2, align 8, !tbaa !216
  %5 = load atomic i32, ptr %4 monotonic, align 4
  store i32 %5, ptr %3, align 4
  %6 = load i32, ptr %3, align 4, !tbaa !182
  ret i32 %6
}

; Function Attrs: nounwind uwtable
define internal void @drop_gil(ptr noundef %0, ptr noundef %1, i32 noundef %2) #0 {
  %4 = alloca ptr, align 8
  %5 = alloca ptr, align 8
  %6 = alloca i32, align 4
  %7 = alloca ptr, align 8
  %8 = alloca ptr, align 8
  store ptr %0, ptr %4, align 8, !tbaa !8
  store ptr %1, ptr %5, align 8, !tbaa !95
  store i32 %2, ptr %6, align 4, !tbaa !182
  call void @llvm.lifetime.start.p0(i64 8, ptr %7) #11
  %9 = load ptr, ptr %4, align 8, !tbaa !8
  %10 = getelementptr inbounds nuw %struct._is, ptr %9, i32 0, i32 0
  store ptr %10, ptr %7, align 8, !tbaa !188
  call void @llvm.lifetime.start.p0(i64 8, ptr %8) #11
  %11 = load ptr, ptr %7, align 8, !tbaa !188
  %12 = getelementptr inbounds nuw %struct._ceval_state, ptr %11, i32 0, i32 2
  %13 = load ptr, ptr %12, align 8, !tbaa !190
  store ptr %13, ptr %8, align 8, !tbaa !93
  %14 = load ptr, ptr %8, align 8, !tbaa !93
  %15 = getelementptr inbounds nuw %struct._gil_runtime_state, ptr %14, i32 0, i32 2
  %16 = call i32 @_Py_atomic_load_int_relaxed(ptr noundef %15)
  %17 = icmp ne i32 %16, 0
  br i1 %17, label %19, label %18

18:                                               ; preds = %3
  call void @_Py_FatalErrorFunc(ptr noundef @__func__.drop_gil, ptr noundef @.str.16) #12
  unreachable

19:                                               ; preds = %3
  %20 = load i32, ptr %6, align 4, !tbaa !182
  %21 = icmp ne i32 %20, 0
  br i1 %21, label %26, label %22

22:                                               ; preds = %19
  %23 = load ptr, ptr %8, align 8, !tbaa !93
  %24 = getelementptr inbounds nuw %struct._gil_runtime_state, ptr %23, i32 0, i32 1
  %25 = load ptr, ptr %5, align 8, !tbaa !95
  call void @_Py_atomic_store_ptr_relaxed(ptr noundef %24, ptr noundef %25)
  br label %26

26:                                               ; preds = %22, %19
  %27 = load ptr, ptr %5, align 8, !tbaa !95
  %28 = load ptr, ptr %8, align 8, !tbaa !93
  call void @drop_gil_impl(ptr noundef %27, ptr noundef %28)
  %29 = load i32, ptr %6, align 4, !tbaa !182
  %30 = icmp ne i32 %29, 0
  br i1 %30, label %64, label %31

31:                                               ; preds = %26
  %32 = load ptr, ptr %5, align 8, !tbaa !95
  %33 = call i32 @_Py_eval_breaker_bit_is_set(ptr noundef %32, i64 noundef 1)
  %34 = icmp ne i32 %33, 0
  br i1 %34, label %35, label %64

35:                                               ; preds = %31
  %36 = load ptr, ptr %8, align 8, !tbaa !93
  %37 = getelementptr inbounds nuw %struct._gil_runtime_state, ptr %36, i32 0, i32 7
  %38 = call i32 @pthread_mutex_lock(ptr noundef %37) #11
  %39 = icmp ne i32 %38, 0
  br i1 %39, label %40, label %41

40:                                               ; preds = %35
  call void @_Py_FatalErrorFunc(ptr noundef @__func__.drop_gil, ptr noundef @.str.13) #12
  unreachable

41:                                               ; preds = %35
  %42 = load ptr, ptr %8, align 8, !tbaa !93
  %43 = getelementptr inbounds nuw %struct._gil_runtime_state, ptr %42, i32 0, i32 1
  %44 = call ptr @_Py_atomic_load_ptr_relaxed(ptr noundef %43)
  %45 = load ptr, ptr %5, align 8, !tbaa !95
  %46 = icmp eq ptr %44, %45
  br i1 %46, label %47, label %57

47:                                               ; preds = %41
  %48 = load ptr, ptr %5, align 8, !tbaa !95
  call void @_Py_unset_eval_breaker_bit(ptr noundef %48, i64 noundef 1)
  %49 = load ptr, ptr %8, align 8, !tbaa !93
  %50 = getelementptr inbounds nuw %struct._gil_runtime_state, ptr %49, i32 0, i32 6
  %51 = load ptr, ptr %8, align 8, !tbaa !93
  %52 = getelementptr inbounds nuw %struct._gil_runtime_state, ptr %51, i32 0, i32 7
  %53 = call i32 @pthread_cond_wait(ptr noundef %50, ptr noundef %52)
  %54 = icmp ne i32 %53, 0
  br i1 %54, label %55, label %56

55:                                               ; preds = %47
  call void @_Py_FatalErrorFunc(ptr noundef @__func__.drop_gil, ptr noundef @.str.17) #12
  unreachable

56:                                               ; preds = %47
  br label %57

57:                                               ; preds = %56, %41
  %58 = load ptr, ptr %8, align 8, !tbaa !93
  %59 = getelementptr inbounds nuw %struct._gil_runtime_state, ptr %58, i32 0, i32 7
  %60 = call i32 @pthread_mutex_unlock(ptr noundef %59) #11
  %61 = icmp ne i32 %60, 0
  br i1 %61, label %62, label %63

62:                                               ; preds = %57
  call void @_Py_FatalErrorFunc(ptr noundef @__func__.drop_gil, ptr noundef @.str.15) #12
  unreachable

63:                                               ; preds = %57
  br label %64

64:                                               ; preds = %63, %31, %26
  call void @llvm.lifetime.end.p0(i64 8, ptr %8) #11
  call void @llvm.lifetime.end.p0(i64 8, ptr %7) #11
  ret void
}