; Function Attrs: nounwind uwtable
define internal fastcc void @drop_gil(ptr noundef readonly captures(none) %0, ptr noundef %1, i32 noundef %2) unnamed_addr #4 {
  %4 = getelementptr inbounds nuw i8, ptr %0, i64 16
  %5 = load ptr, ptr %4, align 8, !tbaa !185
  %6 = getelementptr inbounds nuw i8, ptr %5, i64 16
  %7 = load atomic i32, ptr %6 monotonic, align 4
  %.not = icmp eq i32 %7, 0
  br i1 %.not, label %8, label %9

8:                                                ; preds = %3
  tail call void @_Py_FatalErrorFunc(ptr noundef nonnull @__func__.drop_gil, ptr noundef nonnull @.str.16) #15
  unreachable

9:                                                ; preds = %3
  %.not16 = icmp eq i32 %2, 0
  br i1 %.not16, label %10, label %.critedge

10:                                               ; preds = %9
  %11 = getelementptr inbounds nuw i8, ptr %5, i64 8
  %12 = ptrtoint ptr %1 to i64
  store atomic i64 %12, ptr %11 monotonic, align 8
  %13 = getelementptr inbounds nuw i8, ptr %5, i64 80
  %14 = tail call i32 @pthread_mutex_lock(ptr noundef nonnull %13) #14
  %.not.i = icmp eq i32 %14, 0
  br i1 %.not.i, label %16, label %15

15:                                               ; preds = %10
  tail call void @_Py_FatalErrorFunc(ptr noundef nonnull @__func__.drop_gil_impl, ptr noundef nonnull @.str.10) #15
  unreachable

16:                                               ; preds = %10
  store atomic i32 0, ptr %6 monotonic, align 4
  %.not6.i = icmp eq ptr %1, null
  br i1 %.not6.i, label %21, label %17

17:                                               ; preds = %16
  %18 = getelementptr inbounds nuw i8, ptr %1, i64 32
  %19 = load i32, ptr %18, align 8
  %20 = and i32 %19, -33
  store i32 %20, ptr %18, align 8
  br label %21

21:                                               ; preds = %17, %16
  %22 = getelementptr inbounds nuw i8, ptr %5, i64 32
  %23 = tail call i32 @pthread_cond_signal(ptr noundef nonnull %22) #14
  %.not7.i = icmp eq i32 %23, 0
  br i1 %.not7.i, label %25, label %24

24:                                               ; preds = %21
  tail call void @_Py_FatalErrorFunc(ptr noundef nonnull @__func__.drop_gil_impl, ptr noundef nonnull @.str.18) #15
  unreachable

25:                                               ; preds = %21
  %26 = tail call i32 @pthread_mutex_unlock(ptr noundef nonnull %13) #14
  %.not8.i = icmp eq i32 %26, 0
  br i1 %.not8.i, label %drop_gil_impl.exit, label %27

27:                                               ; preds = %25
  tail call void @_Py_FatalErrorFunc(ptr noundef nonnull @__func__.drop_gil_impl, ptr noundef nonnull @.str.12) #15
  unreachable

drop_gil_impl.exit:                               ; preds = %25
  %28 = getelementptr inbounds nuw i8, ptr %1, i64 24
  %29 = load atomic i64, ptr %28 monotonic, align 8
  %30 = and i64 %29, 1
  %.not17 = icmp eq i64 %30, 0
  br i1 %.not17, label %drop_gil_impl.exit25, label %31

31:                                               ; preds = %drop_gil_impl.exit
  %32 = getelementptr inbounds nuw i8, ptr %5, i64 168
  %33 = tail call i32 @pthread_mutex_lock(ptr noundef nonnull %32) #14
  %.not18 = icmp eq i32 %33, 0
  br i1 %.not18, label %35, label %34

34:                                               ; preds = %31
  tail call void @_Py_FatalErrorFunc(ptr noundef nonnull @__func__.drop_gil, ptr noundef nonnull @.str.13) #15
  unreachable

35:                                               ; preds = %31
  %36 = load atomic i64, ptr %11 monotonic, align 8
  %37 = inttoptr i64 %36 to ptr
  %38 = icmp eq ptr %1, %37
  br i1 %38, label %39, label %44

39:                                               ; preds = %35
  %40 = atomicrmw and ptr %28, i64 -2 seq_cst, align 8
  %41 = getelementptr inbounds nuw i8, ptr %5, i64 120
  %42 = tail call i32 @pthread_cond_wait(ptr noundef nonnull %41, ptr noundef nonnull %32) #14
  %.not19 = icmp eq i32 %42, 0
  br i1 %.not19, label %44, label %43

43:                                               ; preds = %39
  tail call void @_Py_FatalErrorFunc(ptr noundef nonnull @__func__.drop_gil, ptr noundef nonnull @.str.17) #15
  unreachable

44:                                               ; preds = %39, %35
  %45 = tail call i32 @pthread_mutex_unlock(ptr noundef nonnull %32) #14
  %.not20 = icmp eq i32 %45, 0
  br i1 %.not20, label %drop_gil_impl.exit25, label %46

46:                                               ; preds = %44
  tail call void @_Py_FatalErrorFunc(ptr noundef nonnull @__func__.drop_gil, ptr noundef nonnull @.str.15) #15
  unreachable

.critedge:                                        ; preds = %9
  %47 = getelementptr inbounds nuw i8, ptr %5, i64 80
  %48 = tail call i32 @pthread_mutex_lock(ptr noundef nonnull %47) #14
  %.not.i21 = icmp eq i32 %48, 0
  br i1 %.not.i21, label %50, label %49

49:                                               ; preds = %.critedge
  tail call void @_Py_FatalErrorFunc(ptr noundef nonnull @__func__.drop_gil_impl, ptr noundef nonnull @.str.10) #15
  unreachable

50:                                               ; preds = %.critedge
  store atomic i32 0, ptr %6 monotonic, align 4
  %.not6.i22 = icmp eq ptr %1, null
  br i1 %.not6.i22, label %55, label %51

51:                                               ; preds = %50
  %52 = getelementptr inbounds nuw i8, ptr %1, i64 32
  %53 = load i32, ptr %52, align 8
  %54 = and i32 %53, -33
  store i32 %54, ptr %52, align 8
  br label %55

55:                                               ; preds = %51, %50
  %56 = getelementptr inbounds nuw i8, ptr %5, i64 32
  %57 = tail call i32 @pthread_cond_signal(ptr noundef nonnull %56) #14
  %.not7.i23 = icmp eq i32 %57, 0
  br i1 %.not7.i23, label %59, label %58

58:                                               ; preds = %55
  tail call void @_Py_FatalErrorFunc(ptr noundef nonnull @__func__.drop_gil_impl, ptr noundef nonnull @.str.18) #15
  unreachable

59:                                               ; preds = %55
  %60 = tail call i32 @pthread_mutex_unlock(ptr noundef nonnull %47) #14
  %.not8.i24 = icmp eq i32 %60, 0
  br i1 %.not8.i24, label %drop_gil_impl.exit25, label %61

61:                                               ; preds = %59
  tail call void @_Py_FatalErrorFunc(ptr noundef nonnull @__func__.drop_gil_impl, ptr noundef nonnull @.str.12) #15
  unreachable

drop_gil_impl.exit25:                             ; preds = %59, %44, %drop_gil_impl.exit
  ret void
}